; Function Attrs: mustprogress nofree norecurse nosync nounwind willreturn memory(argmem: readwrite) uwtable
define internal noundef i32 @cff_driver_init(ptr nocapture noundef %0) #5 {
  %2 = alloca ptr, align 8
  %3 = alloca i32, align 4
  %4 = getelementptr inbounds i8, ptr %0, i64 56
  store i32 1, ptr %4, align 8
  %5 = getelementptr inbounds i8, ptr %0, i64 60
  store i8 1, ptr %5, align 4
  %6 = getelementptr inbounds i8, ptr %0, i64 64
  store <4 x i32> <i32 500, i32 400, i32 1000, i32 275>, ptr %6, align 8
  %7 = getelementptr inbounds i8, ptr %0, i64 80
  store <4 x i32> <i32 1667, i32 275, i32 2333, i32 0>, ptr %7, align 8
  %8 = ptrtoint ptr %3 to i64
  %9 = ptrtoint ptr %2 to i64
  %10 = xor i64 %8, %9
  %11 = getelementptr inbounds i8, ptr %0, i64 16
  %12 = load ptr, ptr %11, align 8
  %13 = ptrtoint ptr %12 to i64
  %14 = xor i64 %10, %13
  %15 = trunc i64 %14 to i32
  %16 = lshr i32 %15, 10
  %17 = lshr i32 %15, 20
  %18 = xor i32 %16, %17
  %19 = xor i32 %18, %15
  %20 = getelementptr inbounds i8, ptr %0, i64 96
  store i32 %19, ptr %20, align 8
  %21 = icmp slt i32 %19, 0
  br i1 %21, label %22, label %24

22:                                               ; preds = %1
  %23 = sub nsw i32 0, %19
  br label %.sink.split

24:                                               ; preds = %1
  %25 = icmp eq i32 %18, %15
  br i1 %25, label %.sink.split, label %26

.sink.split:                                      ; preds = %24, %22
  %.sink = phi i32 [ %23, %22 ], [ 123456789, %24 ]
  store i32 %.sink, ptr %20, align 8
  br label %26

26:                                               ; preds = %.sink.split, %24
  ret i32 0
}